target datalayout = "e-m:e-p270:32:32-p271:32:32-p272:64:64-i64:64-i128:128-f80:128-n8:16:32:64-S128"
target triple = "x86_64-pc-linux-gnu"

%struct._object = type { %union.anon.26, ptr }
%union.anon.26 = type { i64 }
%struct.PyVarObject = type { %struct._object, i64 }
%struct._typeobject = type { %struct.PyVarObject, ptr, i64, i64, ptr, i64, ptr, ptr, ptr, ptr, ptr, ptr, ptr, ptr, ptr, ptr, ptr, ptr, ptr, i64, ptr, ptr, ptr, ptr, i64, ptr, ptr, ptr, ptr, ptr, ptr, ptr, ptr, ptr, i64, ptr, ptr, ptr, ptr, ptr, ptr, ptr, ptr, ptr, ptr, ptr, i32, ptr, ptr, i8, i16 }
%struct._PyCompile_CodeUnitMetadata = type { ptr, ptr, ptr, ptr, ptr, ptr, ptr, ptr, i64, i64, i64, i32 }
%struct.anon.27 = type { i32, i32 }
%struct.instruction_sequence = type { %struct._object, ptr, i32, i32, i32, ptr, i32, ptr }

@PyExc_TypeError = external global ptr, align 8
@_PyInstructionSequence_Type = external global %struct._typeobject, align 8
@.str.14 = private unnamed_addr constant [33 x i8] c"expected an instruction sequence\00", align 1

; Function Attrs: alwaysinline nounwind uwtable
define internal i32 @_Py_IsImmortal(ptr noundef %0) #4 {
  %2 = alloca ptr, align 8
  store ptr %0, ptr %2, align 8, !tbaa !32
  %3 = load ptr, ptr %2, align 8, !tbaa !32
  %4 = getelementptr inbounds nuw %struct._object, ptr %3, i32 0, i32 0
  %5 = getelementptr inbounds nuw %struct.anon.27, ptr %4, i32 0, i32 0
  %6 = load i32, ptr %5, align 8, !tbaa !11
  %7 = icmp slt i32 %6, 0
  %8 = zext i1 %7 to i32
  ret i32 %8
}

; Function Attrs: inlinehint nounwind uwtable
define internal ptr @_Py_TYPE(ptr noundef %0) #3 {
  %2 = alloca ptr, align 8
  store ptr %0, ptr %2, align 8, !tbaa !32
  %3 = load ptr, ptr %2, align 8, !tbaa !32
  %4 = getelementptr inbounds nuw %struct._object, ptr %3, i32 0, i32 1
  %5 = load ptr, ptr %4, align 8, !tbaa !155
  ret ptr %5
}

; Function Attrs: alwaysinline nounwind uwtable
define internal void @Py_DECREF(ptr noundef %0) #4 {
  %2 = alloca ptr, align 8
  store ptr %0, ptr %2, align 8, !tbaa !32
  %3 = load ptr, ptr %2, align 8, !tbaa !32
  %4 = call i32 @_Py_IsImmortal(ptr noundef %3)
  %5 = icmp ne i32 %4, 0
  br i1 %5, label %6, label %7

6:                                                ; preds = %1
  br label %16

7:                                                ; preds = %1
  %8 = load ptr, ptr %2, align 8, !tbaa !32
  %9 = getelementptr inbounds nuw %struct._object, ptr %8, i32 0, i32 0
  %10 = getelementptr inbounds nuw %struct.anon.27, ptr %9, i32 0, i32 0
  %11 = load i32, ptr %10, align 8, !tbaa !11
  %12 = add i32 %11, -1
  store i32 %12, ptr %10, align 8, !tbaa !11
  %13 = icmp eq i32 %12, 0
  br i1 %13, label %14, label %16

14:                                               ; preds = %7
  %15 = load ptr, ptr %2, align 8, !tbaa !32
  call void @_Py_Dealloc(ptr noundef %15)
  br label %16

16:                                               ; preds = %6, %14, %7
  ret void
}

; Function Attrs: inlinehint nounwind uwtable
define internal i32 @Py_IS_TYPE(ptr noundef %0, ptr noundef %1) #3 {
  %3 = alloca ptr, align 8
  %4 = alloca ptr, align 8
  store ptr %0, ptr %3, align 8, !tbaa !32
  store ptr %1, ptr %4, align 8, !tbaa !120
  %5 = load ptr, ptr %3, align 8, !tbaa !32
  %6 = call ptr @_Py_TYPE(ptr noundef %5)
  %7 = load ptr, ptr %4, align 8, !tbaa !120
  %8 = icmp eq ptr %6, %7
  %9 = zext i1 %8 to i32
  ret i32 %9
}

; Function Attrs: nounwind uwtable
define dso_local ptr @_PyCompile_Assemble(ptr noundef %0, ptr noundef %1, ptr noundef %2) #0 {
  %4 = alloca ptr, align 8
  %5 = alloca ptr, align 8
  %6 = alloca ptr, align 8
  %7 = alloca ptr, align 8
  %8 = alloca ptr, align 8
  %9 = alloca ptr, align 8
  %10 = alloca %struct.instruction_sequence, align 8
  %11 = alloca ptr, align 8
  %12 = alloca i32, align 4
  %13 = alloca i32, align 4
  %14 = alloca i32, align 4
  %15 = alloca i32, align 4
  %16 = alloca ptr, align 8
  store ptr %0, ptr %5, align 8, !tbaa !42
  store ptr %1, ptr %6, align 8, !tbaa !32
  store ptr %2, ptr %7, align 8, !tbaa !32
  %17 = load ptr, ptr %7, align 8, !tbaa !32
  %18 = call i32 @Py_IS_TYPE(ptr noundef %17, ptr noundef @_PyInstructionSequence_Type)
  %19 = icmp ne i32 %18, 0
  br i1 %19, label %22, label %20

20:                                               ; preds = %3
  %21 = load ptr, ptr @PyExc_TypeError, align 8, !tbaa !32
  call void @PyErr_SetString(ptr noundef %21, ptr noundef @.str.14)
  store ptr null, ptr %4, align 8
  br label %68

22:                                               ; preds = %3
  call void @llvm.lifetime.start.p0(i64 8, ptr %8) #8
  store ptr null, ptr %8, align 8, !tbaa !123
  call void @llvm.lifetime.start.p0(i64 8, ptr %9) #8
  store ptr null, ptr %9, align 8, !tbaa !99
  call void @llvm.lifetime.start.p0(i64 64, ptr %10) #8
  call void @llvm.memset.p0.i64(ptr align 8 %10, i8 0, i64 64, i1 false)
  call void @llvm.lifetime.start.p0(i64 8, ptr %11) #8
  %23 = call ptr @PyDict_New()
  store ptr %23, ptr %11, align 8, !tbaa !32
  %24 = load ptr, ptr %11, align 8, !tbaa !32
  %25 = icmp eq ptr %24, null
  br i1 %25, label %26, label %27

26:                                               ; preds = %22
  store ptr null, ptr %4, align 8
  store i32 1, ptr %12, align 4
  br label %67

27:                                               ; preds = %22
  %28 = load ptr, ptr %7, align 8, !tbaa !32
  %29 = call ptr @_PyCfg_FromInstructionSequence(ptr noundef %28)
  store ptr %29, ptr %8, align 8, !tbaa !123
  %30 = load ptr, ptr %8, align 8, !tbaa !123
  %31 = icmp eq ptr %30, null
  br i1 %31, label %32, label %33

32:                                               ; preds = %27
  br label %63

33:                                               ; preds = %27
  %34 = load ptr, ptr %8, align 8, !tbaa !123
  %35 = call i32 @_PyCfg_JumpLabelsToTargets(ptr noundef %34)
  %36 = icmp slt i32 %35, 0
  br i1 %36, label %37, label %38

37:                                               ; preds = %33
  br label %63

38:                                               ; preds = %33
  store i32 0, ptr %13, align 4, !tbaa !50
  %39 = load ptr, ptr %8, align 8, !tbaa !123
  %40 = load ptr, ptr %5, align 8, !tbaa !42
  %41 = load i32, ptr %13, align 4, !tbaa !50
  %42 = call i32 @_PyCfg_OptimizedCfgToInstructionSequence(ptr noundef %39, ptr noundef %40, i32 noundef %41, ptr noundef %14, ptr noundef %15, ptr noundef %10)
  %43 = icmp slt i32 %42, 0
  br i1 %43, label %44, label %45

44:                                               ; preds = %38
  br label %63

45:                                               ; preds = %38
  %46 = load ptr, ptr %5, align 8, !tbaa !42
  %47 = getelementptr inbounds nuw %struct._PyCompile_CodeUnitMetadata, ptr %46, i32 0, i32 2
  %48 = load ptr, ptr %47, align 8, !tbaa !150
  %49 = call ptr @consts_dict_keys_inorder(ptr noundef %48)
  store ptr %49, ptr %16, align 8, !tbaa !32
  %50 = load ptr, ptr %16, align 8, !tbaa !32
  %51 = icmp eq ptr %50, null
  br i1 %51, label %52, label %53

52:                                               ; preds = %45
  br label %63

53:                                               ; preds = %45
  %54 = load ptr, ptr %5, align 8, !tbaa !42
  %55 = load ptr, ptr %11, align 8, !tbaa !32
  %56 = load ptr, ptr %16, align 8, !tbaa !32
  %57 = load i32, ptr %14, align 4, !tbaa !50
  %58 = load i32, ptr %15, align 4, !tbaa !50
  %59 = load i32, ptr %13, align 4, !tbaa !50
  %60 = load ptr, ptr %6, align 8, !tbaa !32
  %61 = call ptr @_PyAssemble_MakeCodeObject(ptr noundef %54, ptr noundef %55, ptr noundef %56, i32 noundef %57, ptr noundef %10, i32 noundef %58, i32 noundef %59, ptr noundef %60)
  store ptr %61, ptr %9, align 8, !tbaa !99
  %62 = load ptr, ptr %16, align 8, !tbaa !32
  call void @Py_DECREF(ptr noundef %62)
  br label %63

63:                                               ; preds = %53, %52, %44, %37, %32
  %64 = load ptr, ptr %11, align 8, !tbaa !32
  call void @Py_DECREF(ptr noundef %64)
  %65 = load ptr, ptr %8, align 8, !tbaa !123
  call void @_PyCfgBuilder_Free(ptr noundef %65)
  call void @PyInstructionSequence_Fini(ptr noundef %10)
  %66 = load ptr, ptr %9, align 8, !tbaa !99
  store ptr %66, ptr %4, align 8
  store i32 1, ptr %12, align 4
  br label %67

67:                                               ; preds = %63, %26
  call void @llvm.lifetime.end.p0(i64 8, ptr %11) #8
  call void @llvm.lifetime.end.p0(i64 64, ptr %10) #8
  call void @llvm.lifetime.end.p0(i64 8, ptr %9) #8
  call void @llvm.lifetime.end.p0(i64 8, ptr %8) #8
  br label %68

68:                                               ; preds = %67, %20
  %69 = load ptr, ptr %4, align 8
  ret ptr %69
}