; Function Attrs: nounwind uwtable
define dso_local ptr @_PyCompile_Assemble(ptr noundef %0, ptr noundef %1, ptr noundef %2) local_unnamed_addr #0 {
  %4 = alloca %struct.instruction_sequence, align 8
  %5 = alloca i32, align 4
  %6 = alloca i32, align 4
  %7 = getelementptr i8, ptr %2, i64 8
  %.val = load ptr, ptr %7, align 8, !tbaa !90
  %.not = icmp eq ptr %.val, @_PyInstructionSequence_Type
  br i1 %.not, label %10, label %8

8:                                                ; preds = %3
  %9 = load ptr, ptr @PyExc_TypeError, align 8, !tbaa !28
  tail call void @PyErr_SetString(ptr noundef %9, ptr noundef nonnull @.str.14) #11
  br label %42

10:                                               ; preds = %3
  call void @llvm.lifetime.start.p0(i64 64, ptr nonnull %4) #11
  call void @llvm.memset.p0.i64(ptr noundef nonnull align 8 dereferenceable(64) %4, i8 0, i64 64, i1 false)
  %11 = tail call ptr @PyDict_New() #11
  %12 = icmp eq ptr %11, null
  br i1 %12, label %41, label %13

13:                                               ; preds = %10
  %14 = tail call ptr @_PyCfg_FromInstructionSequence(ptr noundef nonnull %2) #11
  %15 = icmp eq ptr %14, null
  br i1 %15, label %Py_DECREF.exit24, label %16

16:                                               ; preds = %13
  %17 = tail call i32 @_PyCfg_JumpLabelsToTargets(ptr noundef nonnull %14) #11
  %18 = icmp slt i32 %17, 0
  br i1 %18, label %Py_DECREF.exit24, label %19

19:                                               ; preds = %16
  %20 = call i32 @_PyCfg_OptimizedCfgToInstructionSequence(ptr noundef nonnull %14, ptr noundef %0, i32 noundef 0, ptr noundef nonnull %5, ptr noundef nonnull %6, ptr noundef nonnull %4) #11
  %21 = icmp slt i32 %20, 0
  br i1 %21, label %Py_DECREF.exit24, label %22

22:                                               ; preds = %19
  %23 = getelementptr inbounds nuw i8, ptr %0, i64 16
  %24 = load ptr, ptr %23, align 8, !tbaa !125
  %25 = call fastcc ptr @consts_dict_keys_inorder(ptr noundef %24)
  %26 = icmp eq ptr %25, null
  br i1 %26, label %Py_DECREF.exit24, label %27

27:                                               ; preds = %22
  %28 = load i32, ptr %5, align 4, !tbaa !46
  %29 = load i32, ptr %6, align 4, !tbaa !46
  %30 = call ptr @_PyAssemble_MakeCodeObject(ptr noundef nonnull %0, ptr noundef nonnull %11, ptr noundef nonnull %25, i32 noundef %28, ptr noundef nonnull %4, i32 noundef %29, i32 noundef 0, ptr noundef %1) #11
  %31 = load i32, ptr %25, align 8, !tbaa !4
  %.not.i23 = icmp sgt i32 %31, -1
  br i1 %.not.i23, label %32, label %Py_DECREF.exit24

32:                                               ; preds = %27
  %33 = add nsw i32 %31, -1
  store i32 %33, ptr %25, align 8, !tbaa !4
  %34 = icmp eq i32 %33, 0
  br i1 %34, label %35, label %Py_DECREF.exit24

35:                                               ; preds = %32
  call void @_Py_Dealloc(ptr noundef nonnull %25) #11
  br label %Py_DECREF.exit24

Py_DECREF.exit24:                                 ; preds = %35, %32, %27, %22, %19, %16, %13
  %.019 = phi ptr [ null, %13 ], [ null, %16 ], [ null, %19 ], [ null, %22 ], [ %30, %27 ], [ %30, %32 ], [ %30, %35 ]
  %36 = load i32, ptr %11, align 8, !tbaa !4
  %.not.i = icmp sgt i32 %36, -1
  br i1 %.not.i, label %37, label %Py_DECREF.exit

37:                                               ; preds = %Py_DECREF.exit24
  %38 = add nsw i32 %36, -1
  store i32 %38, ptr %11, align 8, !tbaa !4
  %39 = icmp eq i32 %38, 0
  br i1 %39, label %40, label %Py_DECREF.exit

40:                                               ; preds = %37
  call void @_Py_Dealloc(ptr noundef nonnull %11) #11
  br label %Py_DECREF.exit

Py_DECREF.exit:                                   ; preds = %Py_DECREF.exit24, %37, %40
  call void @_PyCfgBuilder_Free(ptr noundef %14) #11
  call void @PyInstructionSequence_Fini(ptr noundef nonnull %4) #11
  br label %41

41:                                               ; preds = %10, %Py_DECREF.exit
  %.1 = phi ptr [ %.019, %Py_DECREF.exit ], [ null, %10 ]
  call void @llvm.lifetime.end.p0(i64 64, ptr nonnull %4) #11
  br label %42

42:                                               ; preds = %41, %8
  %.0 = phi ptr [ %.1, %41 ], [ null, %8 ]
  ret ptr %.0
}